; Function Attrs: nounwind sspstrong uwtable
define internal noundef zeroext i1 @qobject_input_type_number(ptr noundef captures(none) %v, ptr noundef %name, ptr noundef writeonly captures(none) %obj, ptr noundef %errp) #0 {
entry:
  %call.i = tail call fastcc ptr @qobject_input_try_get_object(ptr noundef %v, ptr noundef %name, i1 noundef zeroext true)
  %tobool1.not.i = icmp eq ptr %call.i, null
  br i1 %tobool1.not.i, label %qobject_input_get_object.exit.thread, label %land.lhs.true.i

qobject_input_get_object.exit.thread:             ; preds = %entry
  %call.i.i = tail call fastcc ptr @full_name_nth(ptr noundef %v, ptr noundef %name, i32 noundef 0)
  tail call void (ptr, ptr, i32, ptr, ptr, ...) @error_setg_internal(ptr noundef %errp, ptr noundef nonnull @.str.1, i32 noundef 171, ptr noundef nonnull @__func__.qobject_input_get_object, ptr noundef nonnull @.str.5, ptr noundef %call.i.i) #8
  br label %return

land.lhs.true.i:                                  ; preds = %entry
  %obj.val.i = load i32, ptr %call.i, align 8
  %0 = add i32 %obj.val.i, -1
  %or.cond.i.i = icmp ult i32 %0, 6
  br i1 %or.cond.i.i, label %qobject_type.exit.i, label %if.else.i.i

if.else.i.i:                                      ; preds = %land.lhs.true.i
  tail call void @__assert_fail(ptr noundef nonnull @.str.12, ptr noundef nonnull @.str.13, i32 noundef 126, ptr noundef nonnull @__PRETTY_FUNCTION__.qobject_type) #7
  unreachable

qobject_type.exit.i:                              ; preds = %land.lhs.true.i
  %cmp.i = icmp eq i32 %obj.val.i, 2
  br i1 %cmp.i, label %if.end6, label %if.then4

if.then4:                                         ; preds = %qobject_type.exit.i
  %call.i6 = tail call fastcc ptr @full_name_nth(ptr noundef %v, ptr noundef %name, i32 noundef 0)
  tail call void (ptr, ptr, i32, ptr, ptr, ...) @error_setg_internal(ptr noundef %errp, ptr noundef nonnull @.str.1, i32 noundef 569, ptr noundef nonnull @__func__.qobject_input_type_number, ptr noundef nonnull @.str.3, ptr noundef %call.i6, ptr noundef nonnull @.str.34) #8
  br label %return

if.end6:                                          ; preds = %qobject_type.exit.i
  %call7 = tail call double @qnum_get_double(ptr noundef nonnull %call.i) #8
  store double %call7, ptr %obj, align 8
  br label %return

return:                                           ; preds = %qobject_input_get_object.exit.thread, %if.end6, %if.then4
  %retval.0 = phi i1 [ true, %if.end6 ], [ false, %if.then4 ], [ false, %qobject_input_get_object.exit.thread ]
  ret i1 %retval.0
}